; Function Attrs: nounwind uwtable
define internal i32 @chmd_sys_write(ptr nocapture noundef readonly %0, ptr noundef %1, i32 noundef %2) #0 {
  %4 = sext i32 %2 to i64
  %5 = getelementptr inbounds i8, ptr %0, i64 56
  %6 = load ptr, ptr %5, align 8
  %7 = getelementptr inbounds i8, ptr %6, i64 16
  %8 = load i64, ptr %7, align 8
  %9 = add nsw i64 %8, %4
  store i64 %9, ptr %7, align 8
  %10 = load ptr, ptr %5, align 8
  %11 = getelementptr inbounds i8, ptr %10, i64 136
  %12 = load ptr, ptr %11, align 8
  %.not = icmp eq ptr %12, null
  br i1 %.not, label %19, label %13

13:                                               ; preds = %3
  %14 = getelementptr inbounds i8, ptr %0, i64 48
  %15 = load ptr, ptr %14, align 8
  %16 = getelementptr inbounds i8, ptr %15, i64 24
  %17 = load ptr, ptr %16, align 8
  %18 = tail call i32 %17(ptr noundef nonnull %12, ptr noundef %1, i32 noundef %2) #12
  br label %19

19:                                               ; preds = %3, %13
  %.0 = phi i32 [ %18, %13 ], [ %2, %3 ]
  ret i32 %.0
}